; ModuleID = '57/194.c'
source_filename = "57/194.c"
target datalayout = "e-m:e-p270:32:32-p271:32:32-p272:64:64-i64:64-f80:128-n8:16:32:64-S128"
target triple = "x86_64-pc-linux-gnu"

@.str = private unnamed_addr constant [3 x i8] c"%d\00", align 1
@.str.1 = private unnamed_addr constant [3 x i8] c"%s\00", align 1
@.str.2 = private unnamed_addr constant [3 x i8] c"er\00", align 1
@.str.3 = private unnamed_addr constant [3 x i8] c"ly\00", align 1
@.str.4 = private unnamed_addr constant [4 x i8] c"ing\00", align 1
@.str.5 = private unnamed_addr constant [4 x i8] c"%s\0A\00", align 1

; Function Attrs: noinline nounwind uwtable
define dso_local void @main() #0 {
  %1 = alloca [100 x [20 x i8]], align 16
  %2 = alloca [100 x [20 x i8]], align 16
  %3 = alloca [4 x i8], align 1
  %4 = alloca [3 x i8], align 1
  %5 = alloca i32, align 4
  %6 = alloca i32, align 4
  %7 = alloca i32, align 4
  %8 = call i32 (i8*, ...) @__isoc99_scanf(i8* getelementptr inbounds ([3 x i8], [3 x i8]* @.str, i64 0, i64 0), i32* %7)
  store i32 1, i32* %6, align 4
  br label %9

9:                                                ; preds = %19, %0
  %10 = load i32, i32* %6, align 4
  %11 = load i32, i32* %7, align 4
  %12 = icmp sle i32 %10, %11
  br i1 %12, label %13, label %22

13:                                               ; preds = %9
  %14 = load i32, i32* %6, align 4
  %15 = sext i32 %14 to i64
  %16 = getelementptr inbounds [100 x [20 x i8]], [100 x [20 x i8]]* %1, i64 0, i64 %15
  %17 = getelementptr inbounds [20 x i8], [20 x i8]* %16, i64 0, i64 0
  %18 = call i32 (i8*, ...) @__isoc99_scanf(i8* getelementptr inbounds ([3 x i8], [3 x i8]* @.str.1, i64 0, i64 0), i8* %17)
  br label %19

19:                                               ; preds = %13
  %20 = load i32, i32* %6, align 4
  %21 = add nsw i32 %20, 1
  store i32 %21, i32* %6, align 4
  br label %9

22:                                               ; preds = %9
  store i32 1, i32* %6, align 4
  br label %23

23:                                               ; preds = %149, %22
  %24 = load i32, i32* %6, align 4
  %25 = load i32, i32* %7, align 4
  %26 = icmp sle i32 %24, %25
  br i1 %26, label %27, label %152

27:                                               ; preds = %23
  %28 = load i32, i32* %6, align 4
  %29 = sext i32 %28 to i64
  %30 = getelementptr inbounds [100 x [20 x i8]], [100 x [20 x i8]]* %1, i64 0, i64 %29
  %31 = getelementptr inbounds [20 x i8], [20 x i8]* %30, i64 0, i64 0
  %32 = call i64 @strlen(i8* %31) #4
  %33 = trunc i64 %32 to i32
  store i32 %33, i32* %5, align 4
  %34 = load i32, i32* %6, align 4
  %35 = sext i32 %34 to i64
  %36 = getelementptr inbounds [100 x [20 x i8]], [100 x [20 x i8]]* %1, i64 0, i64 %35
  %37 = load i32, i32* %5, align 4
  %38 = sub nsw i32 %37, 3
  %39 = sext i32 %38 to i64
  %40 = getelementptr inbounds [20 x i8], [20 x i8]* %36, i64 0, i64 %39
  %41 = load i8, i8* %40, align 1
  %42 = getelementptr inbounds [4 x i8], [4 x i8]* %3, i64 0, i64 0
  store i8 %41, i8* %42, align 1
  %43 = load i32, i32* %6, align 4
  %44 = sext i32 %43 to i64
  %45 = getelementptr inbounds [100 x [20 x i8]], [100 x [20 x i8]]* %1, i64 0, i64 %44
  %46 = load i32, i32* %5, align 4
  %47 = sub nsw i32 %46, 2
  %48 = sext i32 %47 to i64
  %49 = getelementptr inbounds [20 x i8], [20 x i8]* %45, i64 0, i64 %48
  %50 = load i8, i8* %49, align 1
  %51 = getelementptr inbounds [4 x i8], [4 x i8]* %3, i64 0, i64 1
  store i8 %50, i8* %51, align 1
  %52 = load i32, i32* %6, align 4
  %53 = sext i32 %52 to i64
  %54 = getelementptr inbounds [100 x [20 x i8]], [100 x [20 x i8]]* %1, i64 0, i64 %53
  %55 = load i32, i32* %5, align 4
  %56 = sub nsw i32 %55, 1
  %57 = sext i32 %56 to i64
  %58 = getelementptr inbounds [20 x i8], [20 x i8]* %54, i64 0, i64 %57
  %59 = load i8, i8* %58, align 1
  %60 = getelementptr inbounds [4 x i8], [4 x i8]* %3, i64 0, i64 2
  store i8 %59, i8* %60, align 1
  %61 = getelementptr inbounds [4 x i8], [4 x i8]* %3, i64 0, i64 3
  store i8 0, i8* %61, align 1
  %62 = load i32, i32* %6, align 4
  %63 = sext i32 %62 to i64
  %64 = getelementptr inbounds [100 x [20 x i8]], [100 x [20 x i8]]* %1, i64 0, i64 %63
  %65 = load i32, i32* %5, align 4
  %66 = sub nsw i32 %65, 2
  %67 = sext i32 %66 to i64
  %68 = getelementptr inbounds [20 x i8], [20 x i8]* %64, i64 0, i64 %67
  %69 = load i8, i8* %68, align 1
  %70 = getelementptr inbounds [3 x i8], [3 x i8]* %4, i64 0, i64 0
  store i8 %69, i8* %70, align 1
  %71 = load i32, i32* %6, align 4
  %72 = sext i32 %71 to i64
  %73 = getelementptr inbounds [100 x [20 x i8]], [100 x [20 x i8]]* %1, i64 0, i64 %72
  %74 = load i32, i32* %5, align 4
  %75 = sub nsw i32 %74, 1
  %76 = sext i32 %75 to i64
  %77 = getelementptr inbounds [20 x i8], [20 x i8]* %73, i64 0, i64 %76
  %78 = load i8, i8* %77, align 1
  %79 = getelementptr inbounds [3 x i8], [3 x i8]* %4, i64 0, i64 1
  store i8 %78, i8* %79, align 1
  %80 = getelementptr inbounds [3 x i8], [3 x i8]* %4, i64 0, i64 2
  store i8 0, i8* %80, align 1
  %81 = getelementptr inbounds [3 x i8], [3 x i8]* %4, i64 0, i64 0
  %82 = call i32 @strcmp(i8* %81, i8* getelementptr inbounds ([3 x i8], [3 x i8]* @.str.2, i64 0, i64 0)) #4
  %83 = icmp eq i32 %82, 0
  br i1 %83, label %88, label %84

84:                                               ; preds = %27
  %85 = getelementptr inbounds [3 x i8], [3 x i8]* %4, i64 0, i64 0
  %86 = call i32 @strcmp(i8* %85, i8* getelementptr inbounds ([3 x i8], [3 x i8]* @.str.3, i64 0, i64 0)) #4
  %87 = icmp eq i32 %86, 0
  br i1 %87, label %88, label %108

88:                                               ; preds = %84, %27
  %89 = load i32, i32* %6, align 4
  %90 = sext i32 %89 to i64
  %91 = getelementptr inbounds [100 x [20 x i8]], [100 x [20 x i8]]* %2, i64 0, i64 %90
  %92 = getelementptr inbounds [20 x i8], [20 x i8]* %91, i64 0, i64 0
  %93 = load i32, i32* %6, align 4
  %94 = sext i32 %93 to i64
  %95 = getelementptr inbounds [100 x [20 x i8]], [100 x [20 x i8]]* %1, i64 0, i64 %94
  %96 = getelementptr inbounds [20 x i8], [20 x i8]* %95, i64 0, i64 0
  %97 = load i32, i32* %5, align 4
  %98 = sub nsw i32 %97, 2
  %99 = sext i32 %98 to i64
  %100 = call i8* @strncpy(i8* %92, i8* %96, i64 %99) #5
  %101 = load i32, i32* %6, align 4
  %102 = sext i32 %101 to i64
  %103 = getelementptr inbounds [100 x [20 x i8]], [100 x [20 x i8]]* %2, i64 0, i64 %102
  %104 = load i32, i32* %5, align 4
  %105 = sub nsw i32 %104, 2
  %106 = sext i32 %105 to i64
  %107 = getelementptr inbounds [20 x i8], [20 x i8]* %103, i64 0, i64 %106
  store i8 0, i8* %107, align 1
  br label %143

108:                                              ; preds = %84
  %109 = getelementptr inbounds [4 x i8], [4 x i8]* %3, i64 0, i64 0
  %110 = call i32 @strcmp(i8* %109, i8* getelementptr inbounds ([4 x i8], [4 x i8]* @.str.4, i64 0, i64 0)) #4
  %111 = icmp eq i32 %110, 0
  br i1 %111, label %112, label %132

112:                                              ; preds = %108
  %113 = load i32, i32* %6, align 4
  %114 = sext i32 %113 to i64
  %115 = getelementptr inbounds [100 x [20 x i8]], [100 x [20 x i8]]* %2, i64 0, i64 %114
  %116 = getelementptr inbounds [20 x i8], [20 x i8]* %115, i64 0, i64 0
  %117 = load i32, i32* %6, align 4
  %118 = sext i32 %117 to i64
  %119 = getelementptr inbounds [100 x [20 x i8]], [100 x [20 x i8]]* %1, i64 0, i64 %118
  %120 = getelementptr inbounds [20 x i8], [20 x i8]* %119, i64 0, i64 0
  %121 = load i32, i32* %5, align 4
  %122 = sub nsw i32 %121, 3
  %123 = sext i32 %122 to i64
  %124 = call i8* @strncpy(i8* %116, i8* %120, i64 %123) #5
  %125 = load i32, i32* %6, align 4
  %126 = sext i32 %125 to i64
  %127 = getelementptr inbounds [100 x [20 x i8]], [100 x [20 x i8]]* %2, i64 0, i64 %126
  %128 = load i32, i32* %5, align 4
  %129 = sub nsw i32 %128, 3
  %130 = sext i32 %129 to i64
  %131 = getelementptr inbounds [20 x i8], [20 x i8]* %127, i64 0, i64 %130
  store i8 0, i8* %131, align 1
  br label %142

132:                                              ; preds = %108
  %133 = load i32, i32* %6, align 4
  %134 = sext i32 %133 to i64
  %135 = getelementptr inbounds [100 x [20 x i8]], [100 x [20 x i8]]* %2, i64 0, i64 %134
  %136 = getelementptr inbounds [20 x i8], [20 x i8]* %135, i64 0, i64 0
  %137 = load i32, i32* %6, align 4
  %138 = sext i32 %137 to i64
  %139 = getelementptr inbounds [100 x [20 x i8]], [100 x [20 x i8]]* %1, i64 0, i64 %138
  %140 = getelementptr inbounds [20 x i8], [20 x i8]* %139, i64 0, i64 0
  %141 = call i8* @strcpy(i8* %136, i8* %140) #5
  br label %142

142:                                              ; preds = %132, %112
  br label %143

143:                                              ; preds = %142, %88
  %144 = load i32, i32* %6, align 4
  %145 = sext i32 %144 to i64
  %146 = getelementptr inbounds [100 x [20 x i8]], [100 x [20 x i8]]* %2, i64 0, i64 %145
  %147 = getelementptr inbounds [20 x i8], [20 x i8]* %146, i64 0, i64 0
  %148 = call i32 (i8*, ...) @printf(i8* getelementptr inbounds ([4 x i8], [4 x i8]* @.str.5, i64 0, i64 0), i8* %147)
  br label %149

149:                                              ; preds = %143
  %150 = load i32, i32* %6, align 4
  %151 = add nsw i32 %150, 1
  store i32 %151, i32* %6, align 4
  br label %23

152:                                              ; preds = %23
  ret void
}

declare dso_local i32 @__isoc99_scanf(i8*, ...) #1

; Function Attrs: nounwind readonly
declare dso_local i64 @strlen(i8*) #2

; Function Attrs: nounwind readonly
declare dso_local i32 @strcmp(i8*, i8*) #2

; Function Attrs: nounwind
declare dso_local i8* @strncpy(i8*, i8*, i64) #3

; Function Attrs: nounwind
declare dso_local i8* @strcpy(i8*, i8*) #3

declare dso_local i32 @printf(i8*, ...) #1


!llvm.module.flags = !{!0}
!llvm.ident = !{!1}

!0 = !{i32 1, !"wchar_size", i32 4}
!1 = !{!"clang version 10.0.0-4ubuntu1 "}
