; ModuleID = 'source-C-CXX/56/194.c'
source_filename = "source-C-CXX/56/194.c"
target datalayout = "e-m:e-p270:32:32-p271:32:32-p272:64:64-i64:64-f80:128-n8:16:32:64-S128"
target triple = "x86_64-pc-linux-gnu"

@.str = private unnamed_addr constant [3 x i8] c"%d\00", align 1
@.str.1 = private unnamed_addr constant [3 x i8] c"%s\00", align 1
@.str.2 = private unnamed_addr constant [3 x i8] c"er\00", align 1
@.str.3 = private unnamed_addr constant [3 x i8] c"ly\00", align 1
@.str.4 = private unnamed_addr constant [4 x i8] c"ing\00", align 1

; Function Attrs: nofree nounwind sspstrong uwtable
define dso_local void @main() local_unnamed_addr #0 {
  %1 = alloca [100 x [20 x i8]], align 16
  %2 = alloca [100 x [20 x i8]], align 16
  %3 = alloca [4 x i8], align 1
  %4 = alloca [3 x i8], align 1
  %5 = alloca i32, align 4
  %6 = getelementptr inbounds [100 x [20 x i8]], [100 x [20 x i8]]* %1, i64 0, i64 0, i64 0
  call void @llvm.lifetime.start.p0i8(i64 2000, i8* nonnull %6) #7
  %7 = getelementptr inbounds [100 x [20 x i8]], [100 x [20 x i8]]* %2, i64 0, i64 0, i64 0
  call void @llvm.lifetime.start.p0i8(i64 2000, i8* nonnull %7) #7
  %8 = getelementptr inbounds [4 x i8], [4 x i8]* %3, i64 0, i64 0
  call void @llvm.lifetime.start.p0i8(i64 4, i8* nonnull %8) #7
  %9 = getelementptr inbounds [3 x i8], [3 x i8]* %4, i64 0, i64 0
  call void @llvm.lifetime.start.p0i8(i64 3, i8* nonnull %9) #7
  %10 = bitcast i32* %5 to i8*
  call void @llvm.lifetime.start.p0i8(i64 4, i8* nonnull %10) #7
  %11 = call i32 (i8*, ...) @__isoc99_scanf(i8* getelementptr inbounds ([3 x i8], [3 x i8]* @.str, i64 0, i64 0), i32* nonnull %5)
  %12 = load i32, i32* %5, align 4, !tbaa !5
  %13 = icmp slt i32 %12, 1
  br i1 %13, label %71, label %21

14:                                               ; preds = %21
  %15 = getelementptr inbounds [4 x i8], [4 x i8]* %3, i64 0, i64 1
  %16 = getelementptr inbounds [4 x i8], [4 x i8]* %3, i64 0, i64 2
  %17 = getelementptr inbounds [4 x i8], [4 x i8]* %3, i64 0, i64 3
  %18 = getelementptr inbounds [3 x i8], [3 x i8]* %4, i64 0, i64 1
  %19 = getelementptr inbounds [3 x i8], [3 x i8]* %4, i64 0, i64 2
  %20 = icmp slt i32 %26, 1
  br i1 %20, label %71, label %29

21:                                               ; preds = %0, %21
  %22 = phi i64 [ %25, %21 ], [ 1, %0 ]
  %23 = getelementptr inbounds [100 x [20 x i8]], [100 x [20 x i8]]* %1, i64 0, i64 %22, i64 0
  %24 = call i32 (i8*, ...) @__isoc99_scanf(i8* getelementptr inbounds ([3 x i8], [3 x i8]* @.str.1, i64 0, i64 0), i8* nonnull %23)
  %25 = add nuw nsw i64 %22, 1
  %26 = load i32, i32* %5, align 4, !tbaa !5
  %27 = sext i32 %26 to i64
  %28 = icmp slt i64 %22, %27
  br i1 %28, label %21, label %14, !llvm.loop !9

29:                                               ; preds = %14, %64
  %30 = phi i64 [ %67, %64 ], [ 1, %14 ]
  %31 = getelementptr inbounds [100 x [20 x i8]], [100 x [20 x i8]]* %1, i64 0, i64 %30, i64 0
  %32 = call i64 @strlen(i8* noundef nonnull %31) #8
  %33 = shl i64 %32, 32
  %34 = add i64 %33, -12884901888
  %35 = ashr exact i64 %34, 32
  %36 = getelementptr inbounds [100 x [20 x i8]], [100 x [20 x i8]]* %1, i64 0, i64 %30, i64 %35
  %37 = load i8, i8* %36, align 1, !tbaa !11
  store i8 %37, i8* %8, align 1, !tbaa !11
  %38 = add i64 %33, -8589934592
  %39 = ashr exact i64 %38, 32
  %40 = getelementptr inbounds [100 x [20 x i8]], [100 x [20 x i8]]* %1, i64 0, i64 %30, i64 %39
  %41 = load i8, i8* %40, align 1, !tbaa !11
  store i8 %41, i8* %15, align 1, !tbaa !11
  %42 = add i64 %33, -4294967296
  %43 = ashr exact i64 %42, 32
  %44 = getelementptr inbounds [100 x [20 x i8]], [100 x [20 x i8]]* %1, i64 0, i64 %30, i64 %43
  %45 = load i8, i8* %44, align 1, !tbaa !11
  store i8 %45, i8* %16, align 1, !tbaa !11
  store i8 0, i8* %17, align 1, !tbaa !11
  store i8 %41, i8* %9, align 1, !tbaa !11
  store i8 %45, i8* %18, align 1, !tbaa !11
  store i8 0, i8* %19, align 1, !tbaa !11
  %46 = call i32 @bcmp(i8* noundef nonnull dereferenceable(3) %9, i8* noundef nonnull dereferenceable(3) getelementptr inbounds ([3 x i8], [3 x i8]* @.str.2, i64 0, i64 0), i64 3)
  %47 = icmp eq i32 %46, 0
  br i1 %47, label %51, label %48

48:                                               ; preds = %29
  %49 = call i32 @bcmp(i8* noundef nonnull dereferenceable(3) %9, i8* noundef nonnull dereferenceable(3) getelementptr inbounds ([3 x i8], [3 x i8]* @.str.3, i64 0, i64 0), i64 3)
  %50 = icmp eq i32 %49, 0
  br i1 %50, label %51, label %55

51:                                               ; preds = %48, %29
  %52 = getelementptr inbounds [100 x [20 x i8]], [100 x [20 x i8]]* %2, i64 0, i64 %30, i64 0
  %53 = call i8* @strncpy(i8* noundef nonnull %52, i8* nonnull %31, i64 %39) #7
  %54 = getelementptr inbounds [100 x [20 x i8]], [100 x [20 x i8]]* %2, i64 0, i64 %30, i64 %39
  store i8 0, i8* %54, align 1, !tbaa !11
  br label %64

55:                                               ; preds = %48
  %56 = call i32 @bcmp(i8* noundef nonnull dereferenceable(4) %8, i8* noundef nonnull dereferenceable(4) getelementptr inbounds ([4 x i8], [4 x i8]* @.str.4, i64 0, i64 0), i64 4)
  %57 = icmp eq i32 %56, 0
  %58 = getelementptr inbounds [100 x [20 x i8]], [100 x [20 x i8]]* %2, i64 0, i64 %30, i64 0
  br i1 %57, label %59, label %62

59:                                               ; preds = %55
  %60 = call i8* @strncpy(i8* noundef nonnull %58, i8* nonnull %31, i64 %35) #7
  %61 = getelementptr inbounds [100 x [20 x i8]], [100 x [20 x i8]]* %2, i64 0, i64 %30, i64 %35
  store i8 0, i8* %61, align 1, !tbaa !11
  br label %64

62:                                               ; preds = %55
  %63 = call i8* @strcpy(i8* noundef nonnull %58, i8* noundef nonnull %31) #7
  br label %64

64:                                               ; preds = %59, %62, %51
  %65 = getelementptr inbounds [100 x [20 x i8]], [100 x [20 x i8]]* %2, i64 0, i64 %30, i64 0
  %66 = call i32 @puts(i8* nonnull %65)
  %67 = add nuw nsw i64 %30, 1
  %68 = load i32, i32* %5, align 4, !tbaa !5
  %69 = sext i32 %68 to i64
  %70 = icmp slt i64 %30, %69
  br i1 %70, label %29, label %71, !llvm.loop !12

71:                                               ; preds = %64, %0, %14
  call void @llvm.lifetime.end.p0i8(i64 4, i8* nonnull %10) #7
  call void @llvm.lifetime.end.p0i8(i64 3, i8* nonnull %9) #7
  call void @llvm.lifetime.end.p0i8(i64 4, i8* nonnull %8) #7
  call void @llvm.lifetime.end.p0i8(i64 2000, i8* nonnull %7) #7
  call void @llvm.lifetime.end.p0i8(i64 2000, i8* nonnull %6) #7
  ret void
}

; Function Attrs: argmemonly mustprogress nofree nosync nounwind willreturn
declare void @llvm.lifetime.start.p0i8(i64 immarg, i8* nocapture) #1

; Function Attrs: nofree nounwind
declare noundef i32 @__isoc99_scanf(i8* nocapture noundef readonly, ...) local_unnamed_addr #2

; Function Attrs: argmemonly mustprogress nofree nounwind readonly willreturn
declare i64 @strlen(i8* nocapture) local_unnamed_addr #3

; Function Attrs: argmemonly mustprogress nofree nounwind willreturn
declare i8* @strncpy(i8* noalias returned writeonly, i8* noalias nocapture readonly, i64) local_unnamed_addr #4

; Function Attrs: argmemonly mustprogress nofree nounwind willreturn
declare i8* @strcpy(i8* noalias returned writeonly, i8* noalias nocapture readonly) local_unnamed_addr #4

; Function Attrs: argmemonly mustprogress nofree nosync nounwind willreturn
declare void @llvm.lifetime.end.p0i8(i64 immarg, i8* nocapture) #1

; Function Attrs: argmemonly nofree nounwind readonly willreturn
declare i32 @bcmp(i8* nocapture, i8* nocapture, i64) local_unnamed_addr #5

; Function Attrs: nofree nounwind
declare noundef i32 @puts(i8* nocapture noundef readonly) local_unnamed_addr #6


!llvm.module.flags = !{!0, !1, !2, !3}
!llvm.ident = !{!4}

!0 = !{i32 1, !"wchar_size", i32 4}
!1 = !{i32 7, !"PIC Level", i32 2}
!2 = !{i32 7, !"PIE Level", i32 2}
!3 = !{i32 7, !"uwtable", i32 1}
!4 = !{!"clang version 13.0.0"}
!5 = !{!6, !6, i64 0}
!6 = !{!"int", !7, i64 0}
!7 = !{!"omnipotent char", !8, i64 0}
!8 = !{!"Simple C/C++ TBAA"}
!9 = distinct !{!9, !10}
!10 = !{!"llvm.loop.mustprogress"}
!11 = !{!7, !7, i64 0}
!12 = distinct !{!12, !10}
